; Function Attrs: mustprogress uwtable
define internal { ptr, i64 } @_ZNK7rocksdb12_GLOBAL__N_121TwoLevelIndexIterator8user_keyEv(ptr nocapture noundef nonnull readonly align 8 dereferenceable(160) %this) unnamed_addr #0 align 2 {
entry:
  %second_level_iter_ = getelementptr inbounds i8, ptr %this, i64 88
  %0 = load ptr, ptr %second_level_iter_, align 8
  %vtable.i = load ptr, ptr %0, align 8
  %vfn.i = getelementptr inbounds i8, ptr %vtable.i, i64 96
  %1 = load ptr, ptr %vfn.i, align 8
  %call.i = tail call { ptr, i64 } %1(ptr noundef nonnull align 8 dereferenceable(40) %0)
  ret { ptr, i64 } %call.i
}